target datalayout = "e-m:e-p270:32:32-p271:32:32-p272:64:64-i64:64-i128:128-f80:128-n8:16:32:64-S128"
target triple = "x86_64-pc-linux-gnu"

@ctr = internal global i32 0, align 4

; Function Attrs: nounwind uwtable
define internal i32 @add_two(ptr noundef %0) #0 {
  %2 = alloca ptr, align 8
  store ptr %0, ptr %2, align 8, !tbaa !17
  %3 = load i32, ptr @ctr, align 4, !tbaa !4
  %4 = add nsw i32 %3, 1
  store i32 %4, ptr @ctr, align 4, !tbaa !4
  %5 = call i32 @ASYNC_pause_job()
  %6 = load i32, ptr @ctr, align 4, !tbaa !4
  %7 = add nsw i32 %6, 1
  store i32 %7, ptr @ctr, align 4, !tbaa !4
  ret i32 2
}