; Function Attrs: nounwind uwtable
define internal noundef i32 @add_two(ptr readnone captures(none) %0) #0 {
  %2 = load i32, ptr @ctr, align 4, !tbaa !11
  %3 = add nsw i32 %2, 1
  store i32 %3, ptr @ctr, align 4, !tbaa !11
  %4 = tail call i32 @ASYNC_pause_job() #5
  %5 = load i32, ptr @ctr, align 4, !tbaa !11
  %6 = add nsw i32 %5, 1
  store i32 %6, ptr @ctr, align 4, !tbaa !11
  ret i32 2
}